(dp1
S'lang'
p2
S'e'
sS'date_time'
p3
S'2017-08-21 15:22'
p4
sS'expName'
p5
S'tiltH_blocked'
p6
sS'seed'
p7
I10
sS'room'
p8
S'KEVIN-HP-SPECTRE-X360-CONVERTIBLE'
p9
sS'subjCode'
p10
VtilHtet1df12
p11
sS'frame'
p12
S'basic'
p13
sS'ori'
p14
S'all'
p15
sS'respMapping'
p16
S'upLeft'
p17
s.