(dp1
S'lang'
p2
(lp3
S'Choose'
p4
aS'e'
aS'h'
asS'date_time'
p5
S'2017-08-21 16:42'
p6
sS'expName'
p7
S'tiltH_blocked'
p8
sS'seed'
p9
I10
sS'room'
p10
S'KEVIN-HP-SPECTRE-X360-CONVERTIBLE'
p11
sS'subjCode'
p12
VtilHtet2
p13
sS'frame'
p14
(lp15
S'basic'
p16
aS'basic-full'
p17
aS'both'
p18
aS'full'
p19
aS'none'
p20
asS'ori'
p21
(lp22
S'all'
p23
aS'9L9L'
p24
aS'CLCL'
p25
asS'respMapping'
p26
(lp27
g4
aS'upLeft'
p28
aS'upRight'
p29
as.